target datalayout = "e-m:e-p270:32:32-p271:32:32-p272:64:64-i64:64-i128:128-f80:128-n8:16:32:64-S128"
target triple = "x86_64-pc-linux-gnu"

%struct.bad_decode_test = type { i64, [20 x i8] }

@.str.5 = private unnamed_addr constant [32 x i8] c"../openssl/test/punycode_test.c\00", align 1
@.str.57 = private unnamed_addr constant [3 x i8] c"-1\00", align 1
@.str.61 = private unnamed_addr constant [78 x i8] c"ossl_a2ulabel(bad_decode_tests[tst].input, out, bad_decode_tests[tst].outlen)\00", align 1

; Function Attrs: nounwind uwtable
define internal i32 @test_a2ulabel_bad_decode(i32 noundef %0) #0 {
  %2 = alloca i32, align 4
  %3 = alloca [20 x i8], align 16
  store i32 %0, ptr %2, align 4, !tbaa !4
  call void @llvm.lifetime.start.p0(i64 20, ptr %3) #7
  %4 = load i32, ptr %2, align 4, !tbaa !4
  %5 = sext i32 %4 to i64
  %6 = getelementptr inbounds [5 x %struct.bad_decode_test], ptr @bad_decode_tests, i64 0, i64 %5
  %7 = getelementptr inbounds nuw %struct.bad_decode_test, ptr %6, i32 0, i32 1
  %8 = getelementptr inbounds [20 x i8], ptr %7, i64 0, i64 0
  %9 = getelementptr inbounds [20 x i8], ptr %3, i64 0, i64 0
  %10 = load i32, ptr %2, align 4, !tbaa !4
  %11 = sext i32 %10 to i64
  %12 = getelementptr inbounds [5 x %struct.bad_decode_test], ptr @bad_decode_tests, i64 0, i64 %11
  %13 = getelementptr inbounds nuw %struct.bad_decode_test, ptr %12, i32 0, i32 0
  %14 = load i64, ptr %13, align 16, !tbaa !26
  %15 = call i32 @ossl_a2ulabel(ptr noundef %8, ptr noundef %9, i64 noundef %14)
  %16 = call i32 @test_int_eq(ptr noundef @.str.5, i32 noundef 187, ptr noundef @.str.61, ptr noundef @.str.57, i32 noundef %15, i32 noundef -1)
  call void @llvm.lifetime.end.p0(i64 20, ptr %3) #7
  ret i32 %16
}