; Function Attrs: nounwind uwtable
define internal i32 @test_a2ulabel_bad_decode(i32 noundef %0) #0 {
  %2 = alloca [20 x i8], align 16
  call void @llvm.lifetime.start.p0(i64 20, ptr nonnull %2) #6
  %3 = sext i32 %0 to i64
  %4 = getelementptr inbounds [5 x %struct.bad_decode_test], ptr @bad_decode_tests, i64 0, i64 %3
  %5 = getelementptr inbounds nuw i8, ptr %4, i64 8
  %6 = load i64, ptr %4, align 16, !tbaa !20
  %7 = call i32 @ossl_a2ulabel(ptr noundef nonnull %5, ptr noundef nonnull %2, i64 noundef %6) #6
  %8 = call i32 @test_int_eq(ptr noundef nonnull @.str.5, i32 noundef 187, ptr noundef nonnull @.str.61, ptr noundef nonnull @.str.57, i32 noundef %7, i32 noundef -1) #6
  call void @llvm.lifetime.end.p0(i64 20, ptr nonnull %2) #6
  ret i32 %8
}